target datalayout = "e-m:e-p270:32:32-p271:32:32-p272:64:64-i64:64-i128:128-f80:128-n8:16:32:64-S128"
target triple = "x86_64-pc-linux-gnu"

%struct.H5FS_t = type { %struct.H5C_cache_entry_t, i64, i64, i64, i64, i32, i16, i32, i32, i32, i64, i64, i64, i64, i32, i64, i64, ptr, i8, i32, i8, i8, i32, i64, i64, i64, ptr }
%struct.H5C_cache_entry_t = type { ptr, i64, i64, ptr, i8, ptr, i8, i8, i8, i8, i32, i8, i8, i8, i8, i8, i32, ptr, i32, i32, i32, i32, i32, i8, i8, ptr, ptr, ptr, ptr, ptr, ptr, i8, i32, i8, i64, ptr, i64, i64, i32, i8, i32, i32, i8, ptr, ptr, ptr }
%struct.H5FS_section_info_t = type { i64, i64, i32, i32 }
%struct.H5FS_section_class_t = type { i32, i64, i32, ptr, ptr, ptr, ptr, ptr, ptr, ptr, ptr, ptr, ptr, ptr, ptr, ptr, ptr }

@.str.3 = private unnamed_addr constant [105 x i8] c"generated/home/dtcxzyw/WorkSpace/Projects/compilers/llvm-opt-benchmark/bench/hdf5/hdf5/src/H5FSsection.c\00", align 1
@H5E_FSPACE_g = external global i64, align 8
@H5E_CANTGET_g = external global i64, align 8
@.str.7 = private unnamed_addr constant [23 x i8] c"can't get section info\00", align 1
@H5E_CANTRELEASE_g = external global i64, align 8
@.str.9 = private unnamed_addr constant [27 x i8] c"can't release section info\00", align 1
@__func__.H5FS_sect_add = private unnamed_addr constant [14 x i8] c"H5FS_sect_add\00", align 1
@H5E_CANTINSERT_g = external global i64, align 8
@.str.10 = private unnamed_addr constant [36 x i8] c"'add' section class callback failed\00", align 1
@H5E_CANTMERGE_g = external global i64, align 8
@.str.11 = private unnamed_addr constant [21 x i8] c"can't merge sections\00", align 1
@.str.12 = private unnamed_addr constant [47 x i8] c"can't insert free space section into skip list\00", align 1

; Function Attrs: nounwind uwtable
define i32 @H5FS_sect_add(ptr noundef %0, ptr noundef %1, ptr noundef %2, i32 noundef %3, ptr noundef %4) #0 {
  %6 = alloca ptr, align 8
  %7 = alloca ptr, align 8
  %8 = alloca ptr, align 8
  %9 = alloca i32, align 4
  %10 = alloca ptr, align 8
  %11 = alloca ptr, align 8
  %12 = alloca i8, align 1
  %13 = alloca i8, align 1
  %14 = alloca i32, align 4
  %15 = alloca i8, align 1
  store ptr %0, ptr %6, align 8
  store ptr %1, ptr %7, align 8
  store ptr %2, ptr %8, align 8
  store i32 %3, ptr %9, align 4
  store ptr %4, ptr %10, align 8
  store i8 0, ptr %12, align 1
  store i8 0, ptr %13, align 1
  store i32 0, ptr %14, align 4
  store i8 0, ptr %15, align 1
  %16 = load ptr, ptr %6, align 8
  %17 = load ptr, ptr %7, align 8
  %18 = call i32 @H5FS__sinfo_lock(ptr noundef %16, ptr noundef %17, i32 noundef 0)
  %19 = icmp slt i32 %18, 0
  br i1 %19, label %20, label %35

20:                                               ; preds = %5
  br label %21

21:                                               ; preds = %20
  br label %22

22:                                               ; preds = %21
  br label %23

23:                                               ; preds = %22
  %24 = load i64, ptr @H5E_FSPACE_g, align 8
  %25 = load i64, ptr @H5E_CANTGET_g, align 8
  %26 = call i32 (ptr, ptr, i32, i64, i64, ptr, ...) @H5E_printf_stack(ptr noundef @.str.3, ptr noundef @__func__.H5FS_sect_add, i32 noundef 1315, i64 noundef %24, i64 noundef %25, ptr noundef @.str.7)
  br label %27

27:                                               ; preds = %23
  store i8 1, ptr %15, align 1
  %28 = load i8, ptr %15, align 1
  %29 = trunc i8 %28 to i1
  %30 = zext i1 %29 to i8
  store i8 %30, ptr %15, align 1
  br label %31

31:                                               ; preds = %27
  br label %32

32:                                               ; preds = %31
  store i32 -1, ptr %14, align 4
  br label %127

33:                                               ; No predecessors!
  br label %34

34:                                               ; preds = %33
  br label %35

35:                                               ; preds = %34, %5
  store i8 1, ptr %12, align 1
  %36 = load ptr, ptr %7, align 8
  %37 = getelementptr inbounds %struct.H5FS_t, ptr %36, i32 0, i32 26
  %38 = load ptr, ptr %37, align 8
  %39 = load ptr, ptr %8, align 8
  %40 = getelementptr inbounds %struct.H5FS_section_info_t, ptr %39, i32 0, i32 2
  %41 = load i32, ptr %40, align 8
  %42 = zext i32 %41 to i64
  %43 = getelementptr inbounds %struct.H5FS_section_class_t, ptr %38, i64 %42
  store ptr %43, ptr %11, align 8
  %44 = load ptr, ptr %11, align 8
  %45 = getelementptr inbounds %struct.H5FS_section_class_t, ptr %44, i32 0, i32 6
  %46 = load ptr, ptr %45, align 8
  %47 = icmp ne ptr %46, null
  br i1 %47, label %48, label %71

48:                                               ; preds = %35
  %49 = load ptr, ptr %11, align 8
  %50 = getelementptr inbounds %struct.H5FS_section_class_t, ptr %49, i32 0, i32 6
  %51 = load ptr, ptr %50, align 8
  %52 = load ptr, ptr %10, align 8
  %53 = call i32 %51(ptr noundef %8, ptr noundef %9, ptr noundef %52)
  %54 = icmp slt i32 %53, 0
  br i1 %54, label %55, label %70

55:                                               ; preds = %48
  br label %56

56:                                               ; preds = %55
  br label %57

57:                                               ; preds = %56
  br label %58

58:                                               ; preds = %57
  %59 = load i64, ptr @H5E_FSPACE_g, align 8
  %60 = load i64, ptr @H5E_CANTINSERT_g, align 8
  %61 = call i32 (ptr, ptr, i32, i64, i64, ptr, ...) @H5E_printf_stack(ptr noundef @.str.3, ptr noundef @__func__.H5FS_sect_add, i32 noundef 1322, i64 noundef %59, i64 noundef %60, ptr noundef @.str.10)
  br label %62

62:                                               ; preds = %58
  store i8 1, ptr %15, align 1
  %63 = load i8, ptr %15, align 1
  %64 = trunc i8 %63 to i1
  %65 = zext i1 %64 to i8
  store i8 %65, ptr %15, align 1
  br label %66

66:                                               ; preds = %62
  br label %67

67:                                               ; preds = %66
  store i32 -1, ptr %14, align 4
  br label %127

68:                                               ; No predecessors!
  br label %69

69:                                               ; preds = %68
  br label %70

70:                                               ; preds = %69, %48
  br label %71

71:                                               ; preds = %70, %35
  %72 = load i32, ptr %9, align 4
  %73 = and i32 %72, 2
  %74 = icmp ne i32 %73, 0
  br i1 %74, label %75, label %96

75:                                               ; preds = %71
  %76 = load ptr, ptr %7, align 8
  %77 = load ptr, ptr %10, align 8
  %78 = call i32 @H5FS__sect_merge(ptr noundef %76, ptr noundef %8, ptr noundef %77)
  %79 = icmp slt i32 %78, 0
  br i1 %79, label %80, label %95

80:                                               ; preds = %75
  br label %81

81:                                               ; preds = %80
  br label %82

82:                                               ; preds = %81
  br label %83

83:                                               ; preds = %82
  %84 = load i64, ptr @H5E_FSPACE_g, align 8
  %85 = load i64, ptr @H5E_CANTMERGE_g, align 8
  %86 = call i32 (ptr, ptr, i32, i64, i64, ptr, ...) @H5E_printf_stack(ptr noundef @.str.3, ptr noundef @__func__.H5FS_sect_add, i32 noundef 1332, i64 noundef %84, i64 noundef %85, ptr noundef @.str.11)
  br label %87

87:                                               ; preds = %83
  store i8 1, ptr %15, align 1
  %88 = load i8, ptr %15, align 1
  %89 = trunc i8 %88 to i1
  %90 = zext i1 %89 to i8
  store i8 %90, ptr %15, align 1
  br label %91

91:                                               ; preds = %87
  br label %92

92:                                               ; preds = %91
  store i32 -1, ptr %14, align 4
  br label %127

93:                                               ; No predecessors!
  br label %94

94:                                               ; preds = %93
  br label %95

95:                                               ; preds = %94, %75
  br label %96

96:                                               ; preds = %95, %71
  %97 = load ptr, ptr %8, align 8
  %98 = icmp ne ptr %97, null
  br i1 %98, label %99, label %121

99:                                               ; preds = %96
  %100 = load ptr, ptr %7, align 8
  %101 = load ptr, ptr %8, align 8
  %102 = load i32, ptr %9, align 4
  %103 = call i32 @H5FS__sect_link(ptr noundef %100, ptr noundef %101, i32 noundef %102)
  %104 = icmp slt i32 %103, 0
  br i1 %104, label %105, label %120

105:                                              ; preds = %99
  br label %106

106:                                              ; preds = %105
  br label %107

107:                                              ; preds = %106
  br label %108

108:                                              ; preds = %107
  %109 = load i64, ptr @H5E_FSPACE_g, align 8
  %110 = load i64, ptr @H5E_CANTINSERT_g, align 8
  %111 = call i32 (ptr, ptr, i32, i64, i64, ptr, ...) @H5E_printf_stack(ptr noundef @.str.3, ptr noundef @__func__.H5FS_sect_add, i32 noundef 1341, i64 noundef %109, i64 noundef %110, ptr noundef @.str.12)
  br label %112

112:                                              ; preds = %108
  store i8 1, ptr %15, align 1
  %113 = load i8, ptr %15, align 1
  %114 = trunc i8 %113 to i1
  %115 = zext i1 %114 to i8
  store i8 %115, ptr %15, align 1
  br label %116

116:                                              ; preds = %112
  br label %117

117:                                              ; preds = %116
  store i32 -1, ptr %14, align 4
  br label %127

118:                                              ; No predecessors!
  br label %119

119:                                              ; preds = %118
  br label %120

120:                                              ; preds = %119, %99
  br label %121

121:                                              ; preds = %120, %96
  %122 = load i32, ptr %9, align 4
  %123 = and i32 %122, 9
  %124 = icmp ne i32 %123, 0
  br i1 %124, label %126, label %125

125:                                              ; preds = %121
  store i8 1, ptr %13, align 1
  br label %126

126:                                              ; preds = %125, %121
  br label %127

127:                                              ; preds = %126, %117, %92, %67, %32
  %128 = load i8, ptr %12, align 1
  %129 = trunc i8 %128 to i1
  br i1 %129, label %130, label %150

130:                                              ; preds = %127
  %131 = load ptr, ptr %6, align 8
  %132 = load ptr, ptr %7, align 8
  %133 = load i8, ptr %13, align 1
  %134 = trunc i8 %133 to i1
  %135 = call i32 @H5FS__sinfo_unlock(ptr noundef %131, ptr noundef %132, i1 noundef zeroext %134)
  %136 = icmp slt i32 %135, 0
  br i1 %136, label %137, label %150

137:                                              ; preds = %130
  br label %138

138:                                              ; preds = %137
  br label %139

139:                                              ; preds = %138
  br label %140

140:                                              ; preds = %139
  %141 = load i64, ptr @H5E_FSPACE_g, align 8
  %142 = load i64, ptr @H5E_CANTRELEASE_g, align 8
  %143 = call i32 (ptr, ptr, i32, i64, i64, ptr, ...) @H5E_printf_stack(ptr noundef @.str.3, ptr noundef @__func__.H5FS_sect_add, i32 noundef 1354, i64 noundef %141, i64 noundef %142, ptr noundef @.str.9)
  br label %144

144:                                              ; preds = %140
  store i8 1, ptr %15, align 1
  %145 = load i8, ptr %15, align 1
  %146 = trunc i8 %145 to i1
  %147 = zext i1 %146 to i8
  store i8 %147, ptr %15, align 1
  br label %148

148:                                              ; preds = %144
  store i32 -1, ptr %14, align 4
  br label %149

149:                                              ; preds = %148
  br label %150

150:                                              ; preds = %149, %130, %127
  %151 = load i32, ptr %14, align 4
  ret i32 %151
}