; Function Attrs: nounwind uwtable
define noundef i32 @H5FS_sect_add(ptr noundef %0, ptr noundef %1, ptr noundef %2, i32 noundef %3, ptr noundef %4) local_unnamed_addr #0 {
  %6 = alloca ptr, align 8
  %7 = alloca i32, align 4
  store ptr %2, ptr %6, align 8
  store i32 %3, ptr %7, align 4
  %8 = tail call fastcc i32 @H5FS__sinfo_lock(ptr noundef %0, ptr noundef %1, i32 noundef 0)
  %9 = icmp sgt i32 %8, -1
  br i1 %9, label %10, label %47

10:                                               ; preds = %5
  %11 = getelementptr inbounds i8, ptr %1, i64 408
  %12 = load ptr, ptr %11, align 8
  %13 = getelementptr inbounds i8, ptr %2, i64 16
  %14 = load i32, ptr %13, align 8
  %15 = zext i32 %14 to i64
  %16 = getelementptr inbounds %struct.H5FS_section_class_t, ptr %12, i64 %15, i32 6
  %17 = load ptr, ptr %16, align 8
  %.not = icmp eq ptr %17, null
  br i1 %.not, label %25, label %18

18:                                               ; preds = %10
  %19 = call i32 %17(ptr noundef nonnull %6, ptr noundef nonnull %7, ptr noundef %4) #6
  %20 = icmp slt i32 %19, 0
  br i1 %20, label %21, label %._crit_edge

._crit_edge:                                      ; preds = %18
  %.pre = load i32, ptr %7, align 4
  br label %25

21:                                               ; preds = %18
  %22 = load i64, ptr @H5E_FSPACE_g, align 8
  %23 = load i64, ptr @H5E_CANTINSERT_g, align 8
  %24 = call i32 (ptr, ptr, i32, i64, i64, ptr, ...) @H5E_printf_stack(ptr noundef nonnull @.str.3, ptr noundef nonnull @__func__.H5FS_sect_add, i32 noundef 1322, i64 noundef %22, i64 noundef %23, ptr noundef nonnull @.str.10) #6
  br label %51

25:                                               ; preds = %._crit_edge, %10
  %26 = phi i32 [ %.pre, %._crit_edge ], [ %3, %10 ]
  %27 = and i32 %26, 2
  %.not22 = icmp eq i32 %27, 0
  br i1 %.not22, label %35, label %28

28:                                               ; preds = %25
  %29 = call fastcc i32 @H5FS__sect_merge(ptr noundef nonnull %1, ptr noundef nonnull %6, ptr noundef %4)
  %30 = icmp slt i32 %29, 0
  br i1 %30, label %31, label %._crit_edge32

._crit_edge32:                                    ; preds = %28
  %.pre31.pre = load i32, ptr %7, align 4
  br label %35

31:                                               ; preds = %28
  %32 = load i64, ptr @H5E_FSPACE_g, align 8
  %33 = load i64, ptr @H5E_CANTMERGE_g, align 8
  %34 = call i32 (ptr, ptr, i32, i64, i64, ptr, ...) @H5E_printf_stack(ptr noundef nonnull @.str.3, ptr noundef nonnull @__func__.H5FS_sect_add, i32 noundef 1332, i64 noundef %32, i64 noundef %33, ptr noundef nonnull @.str.11) #6
  br label %51

35:                                               ; preds = %._crit_edge32, %25
  %.pre31 = phi i32 [ %.pre31.pre, %._crit_edge32 ], [ %26, %25 ]
  %36 = load ptr, ptr %6, align 8
  %.not23 = icmp eq ptr %36, null
  br i1 %.not23, label %44, label %37

37:                                               ; preds = %35
  %38 = call fastcc i32 @H5FS__sect_link(ptr noundef nonnull %1, ptr noundef nonnull %36, i32 noundef %.pre31)
  %39 = icmp slt i32 %38, 0
  br i1 %39, label %40, label %._crit_edge29

._crit_edge29:                                    ; preds = %37
  %.pre30 = load i32, ptr %7, align 4
  br label %44

40:                                               ; preds = %37
  %41 = load i64, ptr @H5E_FSPACE_g, align 8
  %42 = load i64, ptr @H5E_CANTINSERT_g, align 8
  %43 = call i32 (ptr, ptr, i32, i64, i64, ptr, ...) @H5E_printf_stack(ptr noundef nonnull @.str.3, ptr noundef nonnull @__func__.H5FS_sect_add, i32 noundef 1341, i64 noundef %41, i64 noundef %42, ptr noundef nonnull @.str.12) #6
  br label %51

44:                                               ; preds = %._crit_edge29, %35
  %45 = phi i32 [ %.pre30, %._crit_edge29 ], [ %.pre31, %35 ]
  %46 = and i32 %45, 9
  %.not24 = icmp eq i32 %46, 0
  br label %51

47:                                               ; preds = %5
  %48 = load i64, ptr @H5E_FSPACE_g, align 8
  %49 = load i64, ptr @H5E_CANTGET_g, align 8
  %50 = tail call i32 (ptr, ptr, i32, i64, i64, ptr, ...) @H5E_printf_stack(ptr noundef nonnull @.str.3, ptr noundef nonnull @__func__.H5FS_sect_add, i32 noundef 1315, i64 noundef %48, i64 noundef %49, ptr noundef nonnull @.str.7) #6
  br label %58

51:                                               ; preds = %44, %40, %31, %21
  %.018.ph = phi i1 [ %.not24, %44 ], [ false, %40 ], [ false, %31 ], [ false, %21 ]
  %.0.ph = phi i32 [ 0, %44 ], [ -1, %40 ], [ -1, %31 ], [ -1, %21 ]
  %52 = call fastcc i32 @H5FS__sinfo_unlock(ptr noundef %0, ptr noundef nonnull %1, i1 noundef zeroext %.018.ph)
  %53 = icmp slt i32 %52, 0
  br i1 %53, label %54, label %58

54:                                               ; preds = %51
  %55 = load i64, ptr @H5E_FSPACE_g, align 8
  %56 = load i64, ptr @H5E_CANTRELEASE_g, align 8
  %57 = call i32 (ptr, ptr, i32, i64, i64, ptr, ...) @H5E_printf_stack(ptr noundef nonnull @.str.3, ptr noundef nonnull @__func__.H5FS_sect_add, i32 noundef 1354, i64 noundef %55, i64 noundef %56, ptr noundef nonnull @.str.9) #6
  br label %58

58:                                               ; preds = %47, %54, %51
  %.1 = phi i32 [ -1, %54 ], [ %.0.ph, %51 ], [ -1, %47 ]
  ret i32 %.1
}